target datalayout = "e-m:e-p270:32:32-p271:32:32-p272:64:64-i64:64-i128:128-f80:128-n8:16:32:64-S128"
target triple = "x86_64-pc-linux-gnu"

%struct.strbuf = type { i64, i64, ptr }
%struct.git_hash_algo = type { ptr, i32, i64, i64, i64, ptr, ptr, ptr, ptr, ptr, ptr, ptr, ptr, ptr }
%struct.repository = type { ptr, ptr, ptr, ptr, ptr, %struct.strmap, %struct.strmap, %struct.repo_path_cache, ptr, ptr, ptr, ptr, %struct.repo_settings, ptr, ptr, ptr, ptr, ptr, ptr, i32, i32, i32, ptr, ptr, i32, i32, i8 }
%struct.strmap = type { %struct.hashmap, ptr, i8 }
%struct.hashmap = type { ptr, ptr, ptr, i32, i32, i32, i32, i8 }
%struct.repo_path_cache = type { ptr, ptr, ptr, ptr, ptr, ptr, ptr }
%struct.repo_settings = type { i32, i32, i32, i32, i32, i32, i32, i32, i32, i32, i32, i32, ptr, i32, i32, i32, i32, i32, i32, i32, i64, i64, i64 }

@push_cert_nonce = internal global ptr null, align 8
@the_repository = external global ptr, align 8
@prefer_ofs_delta = internal global i32 1, align 4
@advertise_atomic_push = internal global i32 1, align 4
@advertise_push_options = internal global i32 0, align 4
@advertise_sid = internal global i32 0, align 4
@sent_capabilities = internal global i32 0, align 4
@.str.50 = private unnamed_addr constant [7 x i8] c"%s %s\0A\00", align 1
@__const.show_ref.cap = private unnamed_addr constant %struct.strbuf { i64 0, i64 0, ptr @strbuf_slopbuf }, align 8
@.str.51 = private unnamed_addr constant [63 x i8] c"report-status report-status-v2 delete-refs side-band-64k quiet\00", align 1
@.str.52 = private unnamed_addr constant [8 x i8] c" atomic\00", align 1
@.str.53 = private unnamed_addr constant [11 x i8] c" ofs-delta\00", align 1
@.str.54 = private unnamed_addr constant [14 x i8] c" push-cert=%s\00", align 1
@.str.55 = private unnamed_addr constant [14 x i8] c" push-options\00", align 1
@.str.56 = private unnamed_addr constant [15 x i8] c" session-id=%s\00", align 1
@.str.57 = private unnamed_addr constant [18 x i8] c" object-format=%s\00", align 1
@.str.58 = private unnamed_addr constant [10 x i8] c" agent=%s\00", align 1
@.str.59 = private unnamed_addr constant [11 x i8] c"%s %s%c%s\0A\00", align 1

; Function Attrs: inlinehint nounwind uwtable
define internal void @strbuf_addstr(ptr noundef %0, ptr noundef %1) #5 {
  %3 = alloca ptr, align 8
  %4 = alloca ptr, align 8
  store ptr %0, ptr %3, align 8, !tbaa !169
  store ptr %1, ptr %4, align 8, !tbaa !11
  %5 = load ptr, ptr %3, align 8, !tbaa !169
  %6 = load ptr, ptr %4, align 8, !tbaa !11
  %7 = load ptr, ptr %4, align 8, !tbaa !11
  %8 = call i64 @strlen(ptr noundef %7) #17
  call void @strbuf_add(ptr noundef %5, ptr noundef %6, i64 noundef %8)
  ret void
}

; Function Attrs: nounwind uwtable
define internal void @show_ref(ptr noundef %0, ptr noundef %1) #0 {
  %3 = alloca ptr, align 8
  %4 = alloca ptr, align 8
  %5 = alloca %struct.strbuf, align 8
  store ptr %0, ptr %3, align 8, !tbaa !11
  store ptr %1, ptr %4, align 8, !tbaa !166
  %6 = load i32, ptr @sent_capabilities, align 4, !tbaa !4
  %7 = icmp ne i32 %6, 0
  br i1 %7, label %8, label %12

8:                                                ; preds = %2
  %9 = load ptr, ptr %4, align 8, !tbaa !166
  %10 = call ptr @oid_to_hex(ptr noundef %9)
  %11 = load ptr, ptr %3, align 8, !tbaa !11
  call void (i32, ptr, ...) @packet_write_fmt(i32 noundef 1, ptr noundef @.str.50, ptr noundef %10, ptr noundef %11)
  br label %46

12:                                               ; preds = %2
  call void @llvm.lifetime.start.p0(i64 24, ptr %5) #15
  call void @llvm.memcpy.p0.p0.i64(ptr align 8 %5, ptr align 8 @__const.show_ref.cap, i64 24, i1 false)
  call void @strbuf_addstr(ptr noundef %5, ptr noundef @.str.51)
  %13 = load i32, ptr @advertise_atomic_push, align 4, !tbaa !4
  %14 = icmp ne i32 %13, 0
  br i1 %14, label %15, label %16

15:                                               ; preds = %12
  call void @strbuf_addstr(ptr noundef %5, ptr noundef @.str.52)
  br label %16

16:                                               ; preds = %15, %12
  %17 = load i32, ptr @prefer_ofs_delta, align 4, !tbaa !4
  %18 = icmp ne i32 %17, 0
  br i1 %18, label %19, label %20

19:                                               ; preds = %16
  call void @strbuf_addstr(ptr noundef %5, ptr noundef @.str.53)
  br label %20

20:                                               ; preds = %19, %16
  %21 = load ptr, ptr @push_cert_nonce, align 8, !tbaa !11
  %22 = icmp ne ptr %21, null
  br i1 %22, label %23, label %25

23:                                               ; preds = %20
  %24 = load ptr, ptr @push_cert_nonce, align 8, !tbaa !11
  call void (ptr, ptr, ...) @strbuf_addf(ptr noundef %5, ptr noundef @.str.54, ptr noundef %24)
  br label %25

25:                                               ; preds = %23, %20
  %26 = load i32, ptr @advertise_push_options, align 4, !tbaa !4
  %27 = icmp ne i32 %26, 0
  br i1 %27, label %28, label %29

28:                                               ; preds = %25
  call void @strbuf_addstr(ptr noundef %5, ptr noundef @.str.55)
  br label %29

29:                                               ; preds = %28, %25
  %30 = load i32, ptr @advertise_sid, align 4, !tbaa !4
  %31 = icmp ne i32 %30, 0
  br i1 %31, label %32, label %34

32:                                               ; preds = %29
  %33 = call ptr @trace2_session_id()
  call void (ptr, ptr, ...) @strbuf_addf(ptr noundef %5, ptr noundef @.str.56, ptr noundef %33)
  br label %34

34:                                               ; preds = %32, %29
  %35 = load ptr, ptr @the_repository, align 8, !tbaa !13
  %36 = getelementptr inbounds nuw %struct.repository, ptr %35, i32 0, i32 17
  %37 = load ptr, ptr %36, align 8, !tbaa !55
  %38 = getelementptr inbounds nuw %struct.git_hash_algo, ptr %37, i32 0, i32 0
  %39 = load ptr, ptr %38, align 8, !tbaa !87
  call void (ptr, ptr, ...) @strbuf_addf(ptr noundef %5, ptr noundef @.str.57, ptr noundef %39)
  %40 = call ptr @git_user_agent_sanitized()
  call void (ptr, ptr, ...) @strbuf_addf(ptr noundef %5, ptr noundef @.str.58, ptr noundef %40)
  %41 = load ptr, ptr %4, align 8, !tbaa !166
  %42 = call ptr @oid_to_hex(ptr noundef %41)
  %43 = load ptr, ptr %3, align 8, !tbaa !11
  %44 = getelementptr inbounds nuw %struct.strbuf, ptr %5, i32 0, i32 2
  %45 = load ptr, ptr %44, align 8, !tbaa !54
  call void (i32, ptr, ...) @packet_write_fmt(i32 noundef 1, ptr noundef @.str.59, ptr noundef %42, ptr noundef %43, i32 noundef 0, ptr noundef %45)
  call void @strbuf_release(ptr noundef %5)
  store i32 1, ptr @sent_capabilities, align 4, !tbaa !4
  call void @llvm.lifetime.end.p0(i64 24, ptr %5) #15
  br label %46

46:                                               ; preds = %34, %8
  ret void
}