; Function Attrs: nounwind uwtable
define internal fastcc void @show_ref(ptr noundef %0, ptr noundef %1) unnamed_addr #0 {
  %3 = alloca %struct.strbuf, align 8
  %.b = load i1, ptr @sent_capabilities, align 4
  br i1 %.b, label %4, label %6

4:                                                ; preds = %2
  %5 = tail call ptr @oid_to_hex(ptr noundef %1) #21
  tail call void (i32, ptr, ...) @packet_write_fmt(i32 noundef 1, ptr noundef nonnull @.str.50, ptr noundef %5, ptr noundef %0) #21
  br label %31

6:                                                ; preds = %2
  call void @llvm.lifetime.start.p0(i64 24, ptr nonnull %3) #21
  call void @llvm.memcpy.p0.p0.i64(ptr noundef nonnull align 8 dereferenceable(24) %3, ptr noundef nonnull align 8 dereferenceable(24) @__const.report.buf, i64 24, i1 false)
  call void @strbuf_add(ptr noundef nonnull %3, ptr noundef nonnull @.str.51, i64 noundef 62) #21
  %7 = load i32, ptr @advertise_atomic_push, align 4, !tbaa !4
  %.not = icmp eq i32 %7, 0
  br i1 %.not, label %9, label %8

8:                                                ; preds = %6
  call void @strbuf_add(ptr noundef nonnull %3, ptr noundef nonnull @.str.52, i64 noundef 7) #21
  br label %9

9:                                                ; preds = %8, %6
  %10 = load i32, ptr @prefer_ofs_delta, align 4, !tbaa !4
  %.not4 = icmp eq i32 %10, 0
  br i1 %.not4, label %12, label %11

11:                                               ; preds = %9
  call void @strbuf_add(ptr noundef nonnull %3, ptr noundef nonnull @.str.53, i64 noundef 10) #21
  br label %12

12:                                               ; preds = %11, %9
  %13 = load ptr, ptr @push_cert_nonce, align 8, !tbaa !21
  %.not5 = icmp eq ptr %13, null
  br i1 %.not5, label %15, label %14

14:                                               ; preds = %12
  call void (ptr, ptr, ...) @strbuf_addf(ptr noundef nonnull %3, ptr noundef nonnull @.str.54, ptr noundef nonnull %13) #21
  br label %15

15:                                               ; preds = %14, %12
  %16 = load i32, ptr @advertise_push_options, align 4, !tbaa !4
  %.not6 = icmp eq i32 %16, 0
  br i1 %.not6, label %18, label %17

17:                                               ; preds = %15
  call void @strbuf_add(ptr noundef nonnull %3, ptr noundef nonnull @.str.55, i64 noundef 13) #21
  br label %18

18:                                               ; preds = %17, %15
  %19 = load i32, ptr @advertise_sid, align 4, !tbaa !4
  %.not7 = icmp eq i32 %19, 0
  br i1 %.not7, label %22, label %20

20:                                               ; preds = %18
  %21 = call ptr @trace2_session_id() #21
  call void (ptr, ptr, ...) @strbuf_addf(ptr noundef nonnull %3, ptr noundef nonnull @.str.56, ptr noundef %21) #21
  br label %22

22:                                               ; preds = %20, %18
  %23 = load ptr, ptr @the_repository, align 8, !tbaa !22
  %24 = getelementptr inbounds nuw i8, ptr %23, i64 400
  %25 = load ptr, ptr %24, align 8, !tbaa !34
  %26 = load ptr, ptr %25, align 8, !tbaa !51
  call void (ptr, ptr, ...) @strbuf_addf(ptr noundef nonnull %3, ptr noundef nonnull @.str.57, ptr noundef %26) #21
  %27 = call ptr @git_user_agent_sanitized() #21
  call void (ptr, ptr, ...) @strbuf_addf(ptr noundef nonnull %3, ptr noundef nonnull @.str.58, ptr noundef %27) #21
  %28 = call ptr @oid_to_hex(ptr noundef %1) #21
  %29 = getelementptr inbounds nuw i8, ptr %3, i64 16
  %30 = load ptr, ptr %29, align 8, !tbaa !57
  call void (i32, ptr, ...) @packet_write_fmt(i32 noundef 1, ptr noundef nonnull @.str.59, ptr noundef %28, ptr noundef %0, i32 noundef 0, ptr noundef %30) #21
  call void @strbuf_release(ptr noundef nonnull %3) #21
  store i1 true, ptr @sent_capabilities, align 4
  call void @llvm.lifetime.end.p0(i64 24, ptr nonnull %3) #21
  br label %31

31:                                               ; preds = %22, %4
  ret void
}